target datalayout = "e-m:e-p270:32:32-p271:32:32-p272:64:64-i64:64-i128:128-f80:128-n8:16:32:64-S128"
target triple = "x86_64-pc-linux-gnu"

%struct.AVFormatContext = type { ptr, ptr, ptr, ptr, ptr, i32, i32, ptr, i32, ptr, i32, ptr, ptr, i64, i64, i64, i32, i32, i32, i64, i64, ptr, i32, i32, ptr, i32, i32, i32, i32, ptr, i64, i32, i32, %struct.AVIOInterruptCB, i32, i32, i32, i32, i64, i32, i32, i32, i32, i32, i32, i32, i32, i32, i32, i32, i32, i64, i32, i32, i32, i32, i32, ptr, ptr, ptr, ptr, i32, ptr, ptr, ptr, ptr, i32, ptr, ptr, i64, ptr, ptr, ptr, i64 }
%struct.AVIOInterruptCB = type { ptr, ptr }
%struct.DASHContext = type { ptr, ptr, ptr, i32, i32, i32, i64, i64, i32, i32, i32, i32, ptr, i32, i64, i64, [100 x i8], i64, i64, [1024 x i8], ptr, ptr, ptr, ptr, ptr, ptr, ptr, i32, ptr, i32, i32, ptr, ptr, ptr, i32, i64, i32, ptr, i32, i32, i32, i32, i32, i32, i32, i32, i32, i32, i64, i64, i32, i64, i32, %struct.AVRational, %struct.AVRational, i64 }
%struct.AVRational = type { i32, i32 }

@.str.100 = private unnamed_addr constant [30 x i8] c"Assertion %s failed at %s:%d\0A\00", align 1
@.str.101 = private unnamed_addr constant [17 x i8] c"http_url_context\00", align 1
@.str.102 = private unnamed_addr constant [22 x i8] c"libavformat/dashenc.c\00", align 1

; Function Attrs: nounwind uwtable
define internal void @dashenc_io_close(ptr noundef %0, ptr noundef %1, ptr noundef %2) #0 {
  %4 = alloca ptr, align 8
  %5 = alloca ptr, align 8
  %6 = alloca ptr, align 8
  %7 = alloca ptr, align 8
  %8 = alloca i32, align 4
  %9 = alloca i32, align 4
  %10 = alloca ptr, align 8
  store ptr %0, ptr %4, align 8, !tbaa !4
  store ptr %1, ptr %5, align 8, !tbaa !204
  store ptr %2, ptr %6, align 8, !tbaa !116
  call void @llvm.lifetime.start.p0(i64 8, ptr %7) #13
  %11 = load ptr, ptr %4, align 8, !tbaa !4
  %12 = getelementptr inbounds nuw %struct.AVFormatContext, ptr %11, i32 0, i32 3
  %13 = load ptr, ptr %12, align 8, !tbaa !9
  store ptr %13, ptr %7, align 8, !tbaa !26
  call void @llvm.lifetime.start.p0(i64 4, ptr %8) #13
  %14 = load ptr, ptr %6, align 8, !tbaa !116
  %15 = icmp ne ptr %14, null
  br i1 %15, label %16, label %19

16:                                               ; preds = %3
  %17 = load ptr, ptr %6, align 8, !tbaa !116
  %18 = call i32 @ff_is_http_proto(ptr noundef %17)
  br label %20

19:                                               ; preds = %3
  br label %20

20:                                               ; preds = %19, %16
  %21 = phi i32 [ %18, %16 ], [ 0, %19 ]
  store i32 %21, ptr %8, align 4, !tbaa !28
  %22 = load ptr, ptr %5, align 8, !tbaa !204
  %23 = load ptr, ptr %22, align 8, !tbaa !206
  %24 = icmp ne ptr %23, null
  br i1 %24, label %26, label %25

25:                                               ; preds = %20
  store i32 1, ptr %9, align 4
  br label %54

26:                                               ; preds = %20
  %27 = load i32, ptr %8, align 4, !tbaa !28
  %28 = icmp ne i32 %27, 0
  br i1 %28, label %29, label %34

29:                                               ; preds = %26
  %30 = load ptr, ptr %7, align 8, !tbaa !26
  %31 = getelementptr inbounds nuw %struct.DASHContext, ptr %30, i32 0, i32 29
  %32 = load i32, ptr %31, align 8, !tbaa !207
  %33 = icmp ne i32 %32, 0
  br i1 %33, label %38, label %34

34:                                               ; preds = %29, %26
  %35 = load ptr, ptr %4, align 8, !tbaa !4
  %36 = load ptr, ptr %5, align 8, !tbaa !204
  %37 = call i32 @ff_format_io_close(ptr noundef %35, ptr noundef %36)
  br label %53

38:                                               ; preds = %29
  call void @llvm.lifetime.start.p0(i64 8, ptr %10) #13
  %39 = load ptr, ptr %5, align 8, !tbaa !204
  %40 = load ptr, ptr %39, align 8, !tbaa !206
  %41 = call ptr @ffio_geturlcontext(ptr noundef %40)
  store ptr %41, ptr %10, align 8, !tbaa !208
  br label %42

42:                                               ; preds = %38
  %43 = load ptr, ptr %10, align 8, !tbaa !208
  %44 = icmp ne ptr %43, null
  br i1 %44, label %46, label %45

45:                                               ; preds = %42
  call void (ptr, i32, ptr, ...) @av_log(ptr noundef null, i32 noundef 0, ptr noundef @.str.100, ptr noundef @.str.101, ptr noundef @.str.102, i32 noundef 252)
  call void @abort() #15
  unreachable

46:                                               ; preds = %42
  br label %47

47:                                               ; preds = %46
  br label %48

48:                                               ; preds = %47
  %49 = load ptr, ptr %5, align 8, !tbaa !204
  %50 = load ptr, ptr %49, align 8, !tbaa !206
  call void @avio_flush(ptr noundef %50)
  %51 = load ptr, ptr %10, align 8, !tbaa !208
  %52 = call i32 @ffurl_shutdown(ptr noundef %51, i32 noundef 2)
  call void @llvm.lifetime.end.p0(i64 8, ptr %10) #13
  br label %53

53:                                               ; preds = %48, %34
  store i32 0, ptr %9, align 4
  br label %54

54:                                               ; preds = %53, %25
  call void @llvm.lifetime.end.p0(i64 4, ptr %8) #13
  call void @llvm.lifetime.end.p0(i64 8, ptr %7) #13
  %55 = load i32, ptr %9, align 4
  switch i32 %55, label %57 [
    i32 0, label %56
    i32 1, label %56
  ]

56:                                               ; preds = %54, %54
  ret void

57:                                               ; preds = %54
  unreachable
}