; Function Attrs: nounwind uwtable
define internal fastcc void @dashenc_io_close(ptr noundef %0, ptr noundef %1, ptr noundef %2) unnamed_addr #0 {
  %4 = getelementptr inbounds nuw i8, ptr %0, i64 24
  %5 = load ptr, ptr %4, align 8, !tbaa !24
  %.not = icmp eq ptr %2, null
  br i1 %.not, label %.thread, label %6

6:                                                ; preds = %3
  %7 = tail call i32 @ff_is_http_proto(ptr noundef nonnull %2) #15
  %8 = load ptr, ptr %1, align 8, !tbaa !135
  %.not13 = icmp eq ptr %8, null
  br i1 %.not13, label %22, label %10

.thread:                                          ; preds = %3
  %9 = load ptr, ptr %1, align 8, !tbaa !135
  %.not1318 = icmp eq ptr %9, null
  br i1 %.not1318, label %22, label %.thread20

10:                                               ; preds = %6
  %11 = icmp eq i32 %7, 0
  br i1 %11, label %.thread20, label %12

12:                                               ; preds = %10
  %13 = getelementptr inbounds nuw i8, ptr %5, i64 1320
  %14 = load i32, ptr %13, align 8, !tbaa !133
  %.not15 = icmp eq i32 %14, 0
  br i1 %.not15, label %.thread20, label %16

.thread20:                                        ; preds = %.thread, %12, %10
  %15 = tail call i32 @ff_format_io_close(ptr noundef nonnull %0, ptr noundef nonnull %1) #15
  br label %22

16:                                               ; preds = %12
  %17 = tail call ptr @ffio_geturlcontext(ptr noundef nonnull %8) #15
  %.not16 = icmp eq ptr %17, null
  br i1 %.not16, label %18, label %19

18:                                               ; preds = %16
  tail call void (ptr, i32, ptr, ...) @av_log(ptr noundef null, i32 noundef 0, ptr noundef nonnull @.str.100, ptr noundef nonnull @.str.101, ptr noundef nonnull @.str.102, i32 noundef 252) #15
  tail call void @abort() #18
  unreachable

19:                                               ; preds = %16
  %20 = load ptr, ptr %1, align 8, !tbaa !135
  tail call void @avio_flush(ptr noundef %20) #15
  %21 = tail call i32 @ffurl_shutdown(ptr noundef nonnull %17, i32 noundef 2) #15
  br label %22

22:                                               ; preds = %.thread, %.thread20, %19, %6
  ret void
}